target datalayout = "e-m:e-p270:32:32-p271:32:32-p272:64:64-i64:64-i128:128-f80:128-n8:16:32:64-S128"
target triple = "x86_64-pc-linux-gnu"

%struct.SwsInternal = type { %struct.SwsContext, ptr, ptr, ptr, ptr, i32, [2 x ptr], i32, i32, ptr, i32, i32, i32, i32, i32, i32, i32, i32, i32, i32, i32, i32, i32, i32, i32, i32, i32, i32, ptr, ptr, %struct.RangeList, [3 x ptr], [2 x [4 x i32]], [2 x [4 x ptr]], i32, double, i32, ptr, ptr, i32, [2 x i32], i32, ptr, ptr, [256 x i32], [256 x i32], [256 x float], i32, i32, ptr, i32, ptr, ptr, ptr, ptr, ptr, ptr, ptr, ptr, i32, i32, i32, i32, i32, i32, ptr, ptr, i32, i32, i32, ptr, [8 x i8], [1280 x i32], [1280 x ptr], [1280 x ptr], [1280 x ptr], [176 x i32], [4 x ptr], i32, i32, i32, [4 x i32], [4 x i32], i32, i32, i32, i32, i32, i32, i32, i32, i32, i32, i64, i64, i64, i64, i64, i64, i64, i64, i64, i64, i64, [1024 x i32], [1024 x i32], i32, i64, i64, i64, i64, i64, [1024 x i32], i64, i64, [8 x i16], [8 x i32], ptr, ptr, i32, ptr, ptr, ptr, ptr, [3 x [4 x i16]], [3 x [4 x i16]], ptr, ptr, ptr, ptr, ptr, ptr, ptr, ptr, ptr, ptr, ptr, ptr, ptr, ptr, ptr, ptr, ptr, ptr, ptr, ptr, i32, i32, i64, i64, i32, ptr, i32, ptr, i32, i32, i32, i32, i32, ptr }
%struct.SwsContext = type { ptr, ptr, i32, [2 x double], i32, i32, i32, i32, i32, i32, i32, i32, i32, i32, i32, i32, i32, i32, i32, i32, i32 }
%struct.RangeList = type { ptr, i32, i32 }

; Function Attrs: nounwind uwtable
define internal void @fillPlane(ptr noundef %0, i32 noundef %1, i32 noundef %2, i32 noundef %3, i32 noundef %4, i8 noundef zeroext %5) #0 {
  %7 = alloca ptr, align 8
  %8 = alloca i32, align 4
  %9 = alloca i32, align 4
  %10 = alloca i32, align 4
  %11 = alloca i32, align 4
  %12 = alloca i8, align 1
  %13 = alloca i32, align 4
  %14 = alloca ptr, align 8
  store ptr %0, ptr %7, align 8, !tbaa !4
  store i32 %1, ptr %8, align 4, !tbaa !9
  store i32 %2, ptr %9, align 4, !tbaa !9
  store i32 %3, ptr %10, align 4, !tbaa !9
  store i32 %4, ptr %11, align 4, !tbaa !9
  store i8 %5, ptr %12, align 1, !tbaa !67
  call void @llvm.lifetime.start.p0(i64 4, ptr %13) #11
  call void @llvm.lifetime.start.p0(i64 8, ptr %14) #11
  %15 = load ptr, ptr %7, align 8, !tbaa !4
  %16 = load i32, ptr %8, align 4, !tbaa !9
  %17 = load i32, ptr %11, align 4, !tbaa !9
  %18 = mul nsw i32 %16, %17
  %19 = sext i32 %18 to i64
  %20 = getelementptr inbounds i8, ptr %15, i64 %19
  store ptr %20, ptr %14, align 8, !tbaa !4
  store i32 0, ptr %13, align 4, !tbaa !9
  br label %21

21:                                               ; preds = %36, %6
  %22 = load i32, ptr %13, align 4, !tbaa !9
  %23 = load i32, ptr %10, align 4, !tbaa !9
  %24 = icmp slt i32 %22, %23
  br i1 %24, label %25, label %39

25:                                               ; preds = %21
  %26 = load ptr, ptr %14, align 8, !tbaa !4
  %27 = load i8, ptr %12, align 1, !tbaa !67
  %28 = zext i8 %27 to i32
  %29 = trunc i32 %28 to i8
  %30 = load i32, ptr %9, align 4, !tbaa !9
  %31 = sext i32 %30 to i64
  call void @llvm.memset.p0.i64(ptr align 1 %26, i8 %29, i64 %31, i1 false)
  %32 = load i32, ptr %8, align 4, !tbaa !9
  %33 = load ptr, ptr %14, align 8, !tbaa !4
  %34 = sext i32 %32 to i64
  %35 = getelementptr inbounds i8, ptr %33, i64 %34
  store ptr %35, ptr %14, align 8, !tbaa !4
  br label %36

36:                                               ; preds = %25
  %37 = load i32, ptr %13, align 4, !tbaa !9
  %38 = add nsw i32 %37, 1
  store i32 %38, ptr %13, align 4, !tbaa !9
  br label %21, !llvm.loop !183

39:                                               ; preds = %21
  call void @llvm.lifetime.end.p0(i64 8, ptr %14) #11
  call void @llvm.lifetime.end.p0(i64 4, ptr %13) #11
  ret void
}

; Function Attrs: nounwind uwtable
define void @ff_copyPlane(ptr noundef %0, i32 noundef %1, i32 noundef %2, i32 noundef %3, i32 noundef %4, ptr noundef %5, i32 noundef %6) #0 {
  %8 = alloca ptr, align 8
  %9 = alloca i32, align 4
  %10 = alloca i32, align 4
  %11 = alloca i32, align 4
  %12 = alloca i32, align 4
  %13 = alloca ptr, align 8
  %14 = alloca i32, align 4
  %15 = alloca i32, align 4
  store ptr %0, ptr %8, align 8, !tbaa !4
  store i32 %1, ptr %9, align 4, !tbaa !9
  store i32 %2, ptr %10, align 4, !tbaa !9
  store i32 %3, ptr %11, align 4, !tbaa !9
  store i32 %4, ptr %12, align 4, !tbaa !9
  store ptr %5, ptr %13, align 8, !tbaa !4
  store i32 %6, ptr %14, align 4, !tbaa !9
  %16 = load i32, ptr %14, align 4, !tbaa !9
  %17 = load i32, ptr %10, align 4, !tbaa !9
  %18 = mul nsw i32 %16, %17
  %19 = load ptr, ptr %13, align 8, !tbaa !4
  %20 = sext i32 %18 to i64
  %21 = getelementptr inbounds i8, ptr %19, i64 %20
  store ptr %21, ptr %13, align 8, !tbaa !4
  %22 = load i32, ptr %14, align 4, !tbaa !9
  %23 = load i32, ptr %9, align 4, !tbaa !9
  %24 = icmp eq i32 %22, %23
  br i1 %24, label %25, label %35

25:                                               ; preds = %7
  %26 = load i32, ptr %9, align 4, !tbaa !9
  %27 = icmp sgt i32 %26, 0
  br i1 %27, label %28, label %35

28:                                               ; preds = %25
  %29 = load ptr, ptr %13, align 8, !tbaa !4
  %30 = load ptr, ptr %8, align 8, !tbaa !4
  %31 = load i32, ptr %11, align 4, !tbaa !9
  %32 = load i32, ptr %14, align 4, !tbaa !9
  %33 = mul nsw i32 %31, %32
  %34 = sext i32 %33 to i64
  call void @llvm.memcpy.p0.p0.i64(ptr align 1 %29, ptr align 1 %30, i64 %34, i1 false)
  br label %57

35:                                               ; preds = %25, %7
  call void @llvm.lifetime.start.p0(i64 4, ptr %15) #11
  store i32 0, ptr %15, align 4, !tbaa !9
  br label %36

36:                                               ; preds = %53, %35
  %37 = load i32, ptr %15, align 4, !tbaa !9
  %38 = load i32, ptr %11, align 4, !tbaa !9
  %39 = icmp slt i32 %37, %38
  br i1 %39, label %40, label %56

40:                                               ; preds = %36
  %41 = load ptr, ptr %13, align 8, !tbaa !4
  %42 = load ptr, ptr %8, align 8, !tbaa !4
  %43 = load i32, ptr %12, align 4, !tbaa !9
  %44 = sext i32 %43 to i64
  call void @llvm.memcpy.p0.p0.i64(ptr align 1 %41, ptr align 1 %42, i64 %44, i1 false)
  %45 = load i32, ptr %9, align 4, !tbaa !9
  %46 = load ptr, ptr %8, align 8, !tbaa !4
  %47 = sext i32 %45 to i64
  %48 = getelementptr inbounds i8, ptr %46, i64 %47
  store ptr %48, ptr %8, align 8, !tbaa !4
  %49 = load i32, ptr %14, align 4, !tbaa !9
  %50 = load ptr, ptr %13, align 8, !tbaa !4
  %51 = sext i32 %49 to i64
  %52 = getelementptr inbounds i8, ptr %50, i64 %51
  store ptr %52, ptr %13, align 8, !tbaa !4
  br label %53

53:                                               ; preds = %40
  %54 = load i32, ptr %15, align 4, !tbaa !9
  %55 = add nsw i32 %54, 1
  store i32 %55, ptr %15, align 4, !tbaa !9
  br label %36, !llvm.loop !11

56:                                               ; preds = %36
  call void @llvm.lifetime.end.p0(i64 4, ptr %15) #11
  br label %57

57:                                               ; preds = %56, %28
  ret void
}

; Function Attrs: nounwind uwtable
define internal i32 @planarRgbToplanarRgbWrapper(ptr noundef %0, ptr noundef %1, ptr noundef %2, i32 noundef %3, i32 noundef %4, ptr noundef %5, ptr noundef %6) #0 {
  %8 = alloca ptr, align 8
  %9 = alloca ptr, align 8
  %10 = alloca ptr, align 8
  %11 = alloca i32, align 4
  %12 = alloca i32, align 4
  %13 = alloca ptr, align 8
  %14 = alloca ptr, align 8
  store ptr %0, ptr %8, align 8, !tbaa !13
  store ptr %1, ptr %9, align 8, !tbaa !52
  store ptr %2, ptr %10, align 8, !tbaa !54
  store i32 %3, ptr %11, align 4, !tbaa !9
  store i32 %4, ptr %12, align 4, !tbaa !9
  store ptr %5, ptr %13, align 8, !tbaa !52
  store ptr %6, ptr %14, align 8, !tbaa !54
  %15 = load ptr, ptr %9, align 8, !tbaa !52
  %16 = getelementptr inbounds ptr, ptr %15, i64 0
  %17 = load ptr, ptr %16, align 8, !tbaa !4
  %18 = load ptr, ptr %10, align 8, !tbaa !54
  %19 = getelementptr inbounds i32, ptr %18, i64 0
  %20 = load i32, ptr %19, align 4, !tbaa !9
  %21 = load i32, ptr %11, align 4, !tbaa !9
  %22 = load i32, ptr %12, align 4, !tbaa !9
  %23 = load ptr, ptr %8, align 8, !tbaa !13
  %24 = getelementptr inbounds nuw %struct.SwsInternal, ptr %23, i32 0, i32 0
  %25 = getelementptr inbounds nuw %struct.SwsContext, ptr %24, i32 0, i32 8
  %26 = load i32, ptr %25, align 8, !tbaa !55
  %27 = load ptr, ptr %13, align 8, !tbaa !52
  %28 = getelementptr inbounds ptr, ptr %27, i64 0
  %29 = load ptr, ptr %28, align 8, !tbaa !4
  %30 = load ptr, ptr %14, align 8, !tbaa !54
  %31 = getelementptr inbounds i32, ptr %30, i64 0
  %32 = load i32, ptr %31, align 4, !tbaa !9
  call void @ff_copyPlane(ptr noundef %17, i32 noundef %20, i32 noundef %21, i32 noundef %22, i32 noundef %26, ptr noundef %29, i32 noundef %32)
  %33 = load ptr, ptr %9, align 8, !tbaa !52
  %34 = getelementptr inbounds ptr, ptr %33, i64 1
  %35 = load ptr, ptr %34, align 8, !tbaa !4
  %36 = load ptr, ptr %10, align 8, !tbaa !54
  %37 = getelementptr inbounds i32, ptr %36, i64 1
  %38 = load i32, ptr %37, align 4, !tbaa !9
  %39 = load i32, ptr %11, align 4, !tbaa !9
  %40 = load i32, ptr %12, align 4, !tbaa !9
  %41 = load ptr, ptr %8, align 8, !tbaa !13
  %42 = getelementptr inbounds nuw %struct.SwsInternal, ptr %41, i32 0, i32 0
  %43 = getelementptr inbounds nuw %struct.SwsContext, ptr %42, i32 0, i32 8
  %44 = load i32, ptr %43, align 8, !tbaa !55
  %45 = load ptr, ptr %13, align 8, !tbaa !52
  %46 = getelementptr inbounds ptr, ptr %45, i64 1
  %47 = load ptr, ptr %46, align 8, !tbaa !4
  %48 = load ptr, ptr %14, align 8, !tbaa !54
  %49 = getelementptr inbounds i32, ptr %48, i64 1
  %50 = load i32, ptr %49, align 4, !tbaa !9
  call void @ff_copyPlane(ptr noundef %35, i32 noundef %38, i32 noundef %39, i32 noundef %40, i32 noundef %44, ptr noundef %47, i32 noundef %50)
  %51 = load ptr, ptr %9, align 8, !tbaa !52
  %52 = getelementptr inbounds ptr, ptr %51, i64 2
  %53 = load ptr, ptr %52, align 8, !tbaa !4
  %54 = load ptr, ptr %10, align 8, !tbaa !54
  %55 = getelementptr inbounds i32, ptr %54, i64 2
  %56 = load i32, ptr %55, align 4, !tbaa !9
  %57 = load i32, ptr %11, align 4, !tbaa !9
  %58 = load i32, ptr %12, align 4, !tbaa !9
  %59 = load ptr, ptr %8, align 8, !tbaa !13
  %60 = getelementptr inbounds nuw %struct.SwsInternal, ptr %59, i32 0, i32 0
  %61 = getelementptr inbounds nuw %struct.SwsContext, ptr %60, i32 0, i32 8
  %62 = load i32, ptr %61, align 8, !tbaa !55
  %63 = load ptr, ptr %13, align 8, !tbaa !52
  %64 = getelementptr inbounds ptr, ptr %63, i64 2
  %65 = load ptr, ptr %64, align 8, !tbaa !4
  %66 = load ptr, ptr %14, align 8, !tbaa !54
  %67 = getelementptr inbounds i32, ptr %66, i64 2
  %68 = load i32, ptr %67, align 4, !tbaa !9
  call void @ff_copyPlane(ptr noundef %53, i32 noundef %56, i32 noundef %57, i32 noundef %58, i32 noundef %62, ptr noundef %65, i32 noundef %68)
  %69 = load ptr, ptr %13, align 8, !tbaa !52
  %70 = getelementptr inbounds ptr, ptr %69, i64 3
  %71 = load ptr, ptr %70, align 8, !tbaa !4
  %72 = icmp ne ptr %71, null
  br i1 %72, label %73, label %86

73:                                               ; preds = %7
  %74 = load ptr, ptr %13, align 8, !tbaa !52
  %75 = getelementptr inbounds ptr, ptr %74, i64 3
  %76 = load ptr, ptr %75, align 8, !tbaa !4
  %77 = load ptr, ptr %14, align 8, !tbaa !54
  %78 = getelementptr inbounds i32, ptr %77, i64 3
  %79 = load i32, ptr %78, align 4, !tbaa !9
  %80 = load ptr, ptr %8, align 8, !tbaa !13
  %81 = getelementptr inbounds nuw %struct.SwsInternal, ptr %80, i32 0, i32 0
  %82 = getelementptr inbounds nuw %struct.SwsContext, ptr %81, i32 0, i32 8
  %83 = load i32, ptr %82, align 8, !tbaa !55
  %84 = load i32, ptr %12, align 4, !tbaa !9
  %85 = load i32, ptr %11, align 4, !tbaa !9
  call void @fillPlane(ptr noundef %76, i32 noundef %79, i32 noundef %83, i32 noundef %84, i32 noundef %85, i8 noundef zeroext -1)
  br label %86

86:                                               ; preds = %73, %7
  %87 = load i32, ptr %12, align 4, !tbaa !9
  ret i32 %87
}