; Function Attrs: nofree norecurse nosync nounwind memory(readwrite, inaccessiblemem: none) uwtable
define internal noundef i32 @planarRgbToplanarRgbWrapper(ptr noundef readonly captures(none) %0, ptr noundef readonly captures(none) %1, ptr noundef readonly captures(none) %2, i32 noundef %3, i32 noundef returned %4, ptr noundef readonly captures(none) %5, ptr noundef readonly captures(none) %6) #6 {
  %8 = load ptr, ptr %1, align 8, !tbaa !49
  %9 = load i32, ptr %2, align 4, !tbaa !48
  %10 = getelementptr inbounds nuw i8, ptr %0, i64 56
  %11 = load i32, ptr %10, align 8, !tbaa !50
  %12 = load ptr, ptr %5, align 8, !tbaa !49
  %13 = load i32, ptr %6, align 4, !tbaa !48
  %14 = mul nsw i32 %13, %3
  %15 = sext i32 %14 to i64
  %16 = getelementptr inbounds i8, ptr %12, i64 %15
  %17 = icmp eq i32 %13, %9
  %18 = icmp sgt i32 %9, 0
  %or.cond.i = and i1 %18, %17
  br i1 %or.cond.i, label %23, label %.preheader.i

.preheader.i:                                     ; preds = %7
  %19 = icmp sgt i32 %4, 0
  br i1 %19, label %.lr.ph.i, label %ff_copyPlane.exit

.lr.ph.i:                                         ; preds = %.preheader.i
  %20 = sext i32 %11 to i64
  %21 = sext i32 %9 to i64
  %22 = sext i32 %13 to i64
  br label %26

23:                                               ; preds = %7
  %24 = mul nsw i32 %9, %4
  %25 = sext i32 %24 to i64
  tail call void @llvm.memcpy.p0.p0.i64(ptr align 1 %16, ptr readonly align 1 %8, i64 %25, i1 false)
  br label %ff_copyPlane.exit

26:                                               ; preds = %26, %.lr.ph.i
  %.025.i = phi i32 [ 0, %.lr.ph.i ], [ %29, %26 ]
  %.02024.i = phi ptr [ %8, %.lr.ph.i ], [ %27, %26 ]
  %.02123.i = phi ptr [ %16, %.lr.ph.i ], [ %28, %26 ]
  tail call void @llvm.memcpy.p0.p0.i64(ptr align 1 %.02123.i, ptr align 1 %.02024.i, i64 %20, i1 false)
  %27 = getelementptr inbounds i8, ptr %.02024.i, i64 %21
  %28 = getelementptr inbounds i8, ptr %.02123.i, i64 %22
  %29 = add nuw nsw i32 %.025.i, 1
  %exitcond.not.i = icmp eq i32 %29, %4
  br i1 %exitcond.not.i, label %ff_copyPlane.exit, label %26, !llvm.loop !4

ff_copyPlane.exit:                                ; preds = %26, %.preheader.i, %23
  %30 = getelementptr inbounds nuw i8, ptr %1, i64 8
  %31 = load ptr, ptr %30, align 8, !tbaa !49
  %32 = getelementptr inbounds nuw i8, ptr %2, i64 4
  %33 = load i32, ptr %32, align 4, !tbaa !48
  %34 = load i32, ptr %10, align 8, !tbaa !50
  %35 = getelementptr inbounds nuw i8, ptr %5, i64 8
  %36 = load ptr, ptr %35, align 8, !tbaa !49
  %37 = getelementptr inbounds nuw i8, ptr %6, i64 4
  %38 = load i32, ptr %37, align 4, !tbaa !48
  %39 = mul nsw i32 %38, %3
  %40 = sext i32 %39 to i64
  %41 = getelementptr inbounds i8, ptr %36, i64 %40
  %42 = icmp eq i32 %38, %33
  %43 = icmp sgt i32 %33, 0
  %or.cond.i27 = and i1 %43, %42
  br i1 %or.cond.i27, label %48, label %.preheader.i28

.preheader.i28:                                   ; preds = %ff_copyPlane.exit
  %44 = icmp sgt i32 %4, 0
  br i1 %44, label %.lr.ph.i29, label %ff_copyPlane.exit34

.lr.ph.i29:                                       ; preds = %.preheader.i28
  %45 = sext i32 %34 to i64
  %46 = sext i32 %33 to i64
  %47 = sext i32 %38 to i64
  br label %51

48:                                               ; preds = %ff_copyPlane.exit
  %49 = mul nsw i32 %33, %4
  %50 = sext i32 %49 to i64
  tail call void @llvm.memcpy.p0.p0.i64(ptr align 1 %41, ptr readonly align 1 %31, i64 %50, i1 false)
  br label %ff_copyPlane.exit34

51:                                               ; preds = %51, %.lr.ph.i29
  %.025.i30 = phi i32 [ 0, %.lr.ph.i29 ], [ %54, %51 ]
  %.02024.i31 = phi ptr [ %31, %.lr.ph.i29 ], [ %52, %51 ]
  %.02123.i32 = phi ptr [ %41, %.lr.ph.i29 ], [ %53, %51 ]
  tail call void @llvm.memcpy.p0.p0.i64(ptr align 1 %.02123.i32, ptr align 1 %.02024.i31, i64 %45, i1 false)
  %52 = getelementptr inbounds i8, ptr %.02024.i31, i64 %46
  %53 = getelementptr inbounds i8, ptr %.02123.i32, i64 %47
  %54 = add nuw nsw i32 %.025.i30, 1
  %exitcond.not.i33 = icmp eq i32 %54, %4
  br i1 %exitcond.not.i33, label %ff_copyPlane.exit34, label %51, !llvm.loop !4

ff_copyPlane.exit34:                              ; preds = %51, %.preheader.i28, %48
  %55 = getelementptr inbounds nuw i8, ptr %1, i64 16
  %56 = load ptr, ptr %55, align 8, !tbaa !49
  %57 = getelementptr inbounds nuw i8, ptr %2, i64 8
  %58 = load i32, ptr %57, align 4, !tbaa !48
  %59 = load i32, ptr %10, align 8, !tbaa !50
  %60 = getelementptr inbounds nuw i8, ptr %5, i64 16
  %61 = load ptr, ptr %60, align 8, !tbaa !49
  %62 = getelementptr inbounds nuw i8, ptr %6, i64 8
  %63 = load i32, ptr %62, align 4, !tbaa !48
  %64 = mul nsw i32 %63, %3
  %65 = sext i32 %64 to i64
  %66 = getelementptr inbounds i8, ptr %61, i64 %65
  %67 = icmp eq i32 %63, %58
  %68 = icmp sgt i32 %58, 0
  %or.cond.i35 = and i1 %68, %67
  br i1 %or.cond.i35, label %73, label %.preheader.i36

.preheader.i36:                                   ; preds = %ff_copyPlane.exit34
  %69 = icmp sgt i32 %4, 0
  br i1 %69, label %.lr.ph.i37, label %fillPlane.exit

.lr.ph.i37:                                       ; preds = %.preheader.i36
  %70 = sext i32 %59 to i64
  %71 = sext i32 %58 to i64
  %72 = sext i32 %63 to i64
  br label %76

73:                                               ; preds = %ff_copyPlane.exit34
  %74 = mul nsw i32 %58, %4
  %75 = sext i32 %74 to i64
  tail call void @llvm.memcpy.p0.p0.i64(ptr align 1 %66, ptr readonly align 1 %56, i64 %75, i1 false)
  br label %ff_copyPlane.exit42

76:                                               ; preds = %76, %.lr.ph.i37
  %.025.i38 = phi i32 [ 0, %.lr.ph.i37 ], [ %79, %76 ]
  %.02024.i39 = phi ptr [ %56, %.lr.ph.i37 ], [ %77, %76 ]
  %.02123.i40 = phi ptr [ %66, %.lr.ph.i37 ], [ %78, %76 ]
  tail call void @llvm.memcpy.p0.p0.i64(ptr align 1 %.02123.i40, ptr align 1 %.02024.i39, i64 %70, i1 false)
  %77 = getelementptr inbounds i8, ptr %.02024.i39, i64 %71
  %78 = getelementptr inbounds i8, ptr %.02123.i40, i64 %72
  %79 = add nuw nsw i32 %.025.i38, 1
  %exitcond.not.i41 = icmp eq i32 %79, %4
  br i1 %exitcond.not.i41, label %ff_copyPlane.exit42, label %76, !llvm.loop !4

ff_copyPlane.exit42:                              ; preds = %76, %73
  %80 = getelementptr inbounds nuw i8, ptr %5, i64 24
  %81 = load ptr, ptr %80, align 8, !tbaa !49
  %.not = icmp ne ptr %81, null
  %82 = icmp sgt i32 %4, 0
  %or.cond = and i1 %82, %.not
  br i1 %or.cond, label %.lr.ph.i43, label %fillPlane.exit

.lr.ph.i43:                                       ; preds = %ff_copyPlane.exit42
  %83 = load i32, ptr %10, align 8, !tbaa !50
  %84 = getelementptr inbounds nuw i8, ptr %6, i64 12
  %85 = load i32, ptr %84, align 4, !tbaa !48
  %86 = mul nsw i32 %85, %3
  %87 = sext i32 %86 to i64
  %88 = getelementptr inbounds i8, ptr %81, i64 %87
  %89 = sext i32 %83 to i64
  %90 = sext i32 %85 to i64
  br label %91

91:                                               ; preds = %91, %.lr.ph.i43
  %.012.i = phi ptr [ %88, %.lr.ph.i43 ], [ %92, %91 ]
  %.01011.i = phi i32 [ 0, %.lr.ph.i43 ], [ %93, %91 ]
  tail call void @llvm.memset.p0.i64(ptr align 1 %.012.i, i8 -1, i64 %89, i1 false)
  %92 = getelementptr inbounds i8, ptr %.012.i, i64 %90
  %93 = add nuw nsw i32 %.01011.i, 1
  %exitcond.not.i44 = icmp eq i32 %93, %4
  br i1 %exitcond.not.i44, label %fillPlane.exit, label %91, !llvm.loop !64

fillPlane.exit:                                   ; preds = %91, %.preheader.i36, %ff_copyPlane.exit42
  ret i32 %4
}